; Function Attrs: mustprogress nofree norecurse nosync nounwind willreturn memory(read, argmem: readwrite, inaccessiblemem: none) uwtable
define noundef range(i32 -2, -2147483648) i32 @_ZNK10open_spiel10backgammon15BackgammonState18AugmentCheckerMoveEPNS0_11CheckerMoveEii(ptr nocapture noundef nonnull readonly align 8 dereferenceable(216) %0, ptr nocapture noundef %1, i32 noundef %2, i32 noundef %3) local_unnamed_addr #6 align 2 {
  %5 = getelementptr inbounds nuw i8, ptr %1, i64 4
  %6 = load i32, ptr %5, align 4
  %.not = icmp eq i32 %6, -1
  br i1 %.not, label %27, label %7

7:                                                ; preds = %4
  %8 = sub nsw i32 %3, %6
  %9 = icmp slt i32 %8, 1
  br i1 %9, label %27, label %10

10:                                               ; preds = %7
  %11 = getelementptr inbounds nuw i8, ptr %0, i64 168
  %12 = sub nsw i32 1, %2
  %13 = sext i32 %12 to i64
  %14 = load ptr, ptr %11, align 8
  %15 = getelementptr inbounds %"class.std::vector.6", ptr %14, i64 %13
  %16 = icmp eq i32 %2, 1
  %17 = add nsw i32 %8, -1
  %18 = sub nsw i32 24, %8
  %19 = select i1 %16, i32 %17, i32 %18
  %20 = sext i32 %19 to i64
  %21 = load ptr, ptr %15, align 8
  %22 = getelementptr inbounds i32, ptr %21, i64 %20
  %23 = load i32, ptr %22, align 4
  %24 = icmp eq i32 %23, 1
  br i1 %24, label %25, label %27

25:                                               ; preds = %10
  %26 = getelementptr inbounds nuw i8, ptr %1, i64 8
  store i8 1, ptr %26, align 4
  br label %27

27:                                               ; preds = %7, %25, %10, %4
  %.0 = phi i32 [ %8, %25 ], [ %8, %10 ], [ -1, %4 ], [ -2, %7 ]
  ret i32 %.0
}